Certificate:
    Data:
        Version: 3 (0x2)
        Serial Number:
            b5:5d:eb:2f:fa:de:30:25:20:d0:40:d6:96:46:2a:80
        Signature Algorithm: sha256WithRSAEncryption
        Issuer: CN=ServeurRSA
        Validity
            Not Before: Dec 17 16:47:38 2024 GMT
            Not After : Mar 22 16:47:38 2027 GMT
        Subject: CN=edouard
        Subject Public Key Info:
            Public Key Algorithm: rsaEncryption
                Public-Key: (2048 bit)
                Modulus:
                    00:e0:fb:15:a0:85:77:9a:b9:0e:90:ea:7a:46:50:
                    93:e9:c1:e6:50:46:17:6b:47:d7:52:d4:01:b4:ff:
                    51:de:aa:aa:5b:98:04:90:30:3b:bf:b0:d1:1f:05:
                    25:ce:4b:08:77:d0:7b:cf:eb:8a:21:f7:be:86:77:
                    1d:90:11:6e:af:56:71:c8:22:60:b7:f7:1f:34:63:
                    b3:51:6b:e0:d5:ee:6a:d6:0d:9d:4a:8f:57:d9:e7:
                    2a:27:78:80:3b:95:be:54:27:14:90:de:76:fe:82:
                    c1:3f:b6:aa:19:e2:6a:08:a5:00:58:3a:4e:09:2d:
                    c2:08:e9:a6:38:b6:0a:b7:68:2d:14:37:5f:37:bd:
                    54:96:b8:11:41:eb:f1:0e:aa:fe:03:88:70:59:24:
                    c9:fb:90:fe:1d:87:78:23:d4:0b:06:d0:86:a7:7a:
                    59:b7:0e:1c:3b:5a:03:be:a1:ab:85:e7:fb:4e:4a:
                    78:f3:63:a1:36:56:e9:b4:93:18:c8:93:92:4e:af:
                    f5:87:3e:33:d9:79:96:c3:fa:4e:11:dd:33:62:8c:
                    34:d2:39:5c:5a:31:53:9f:13:c7:d8:c2:b4:83:05:
                    ab:a9:35:e0:b2:a6:97:f4:d4:cd:f5:12:06:1a:15:
                    fe:0c:0f:3d:34:ef:71:39:a2:fa:38:43:7f:30:8e:
                    1b:55
                Exponent: 65537 (0x10001)
        X509v3 extensions:
            X509v3 Basic Constraints: 
                CA:FALSE
            X509v3 Subject Key Identifier: 
                40:C5:62:38:BA:60:15:3C:B6:E9:4A:ED:EC:E0:E1:04:F9:D9:15:E6
            X509v3 Authority Key Identifier: 
                keyid:80:36:C7:03:5C:50:E7:1E:25:D1:1A:0B:43:DF:DE:D0:CD:24:E9:D7
                DirName:/CN=ServeurRSA
                serial:0C:B9:F4:61:C0:F5:41:A9:55:CC:A5:75:09:8A:A4:54:62:13:73:FB
            X509v3 Extended Key Usage: 
                TLS Web Client Authentication
            X509v3 Key Usage: 
                Digital Signature
    Signature Algorithm: sha256WithRSAEncryption
    Signature Value:
        3b:ca:ae:4e:d4:1f:b6:aa:7a:1a:85:91:7e:22:aa:44:a9:ff:
        95:11:89:36:9d:bb:0d:b0:35:dd:06:4e:1e:e2:3f:5c:6f:ec:
        30:46:4d:41:0d:9d:b1:2f:24:d8:ed:97:5e:03:35:18:92:4c:
        81:ac:6d:ab:c2:6a:da:89:8d:49:45:6a:ab:1a:4f:e6:d5:9d:
        66:3b:60:96:5b:25:c3:db:82:35:53:8b:a1:d8:4b:38:c8:dc:
        b4:bb:4e:89:61:0f:c5:c1:39:f8:2f:e5:f5:84:d4:fc:46:11:
        02:1b:9e:83:70:28:d5:00:af:d3:e4:42:b9:b7:3e:84:50:2a:
        c3:ab:f3:b6:0e:a7:4e:2e:ea:3f:a7:13:28:7c:75:10:33:6a:
        3a:da:5e:82:10:96:fa:de:10:a6:1c:a6:3b:ee:2f:8e:83:87:
        f3:aa:a0:17:02:8a:4b:93:de:c8:ac:f2:51:7d:dc:a1:27:d8:
        f8:46:6a:15:d3:49:4c:ba:77:1b:02:2d:ef:99:5c:88:32:28:
        11:65:ab:87:58:ba:38:9f:ca:58:b6:50:cc:fc:a6:d3:fc:87:
        2e:16:48:20:b9:53:07:bd:e2:af:0e:cf:e7:09:54:3d:43:98:
        ea:5f:ee:76:0f:23:6b:aa:c3:44:0a:6f:1f:95:0d:7e:b2:37:
        73:06:94:97
-----BEGIN CERTIFICATE-----
MIIDVDCCAjygAwIBAgIRALVd6y/63jAlINBA1pZGKoAwDQYJKoZIhvcNAQELBQAw
FTETMBEGA1UEAwwKU2VydmV1clJTQTAeFw0yNDEyMTcxNjQ3MzhaFw0yNzAzMjIx
NjQ3MzhaMBIxEDAOBgNVBAMMB2Vkb3VhcmQwggEiMA0GCSqGSIb3DQEBAQUAA4IB
DwAwggEKAoIBAQDg+xWghXeauQ6Q6npGUJPpweZQRhdrR9dS1AG0/1HeqqpbmASQ
MDu/sNEfBSXOSwh30HvP64oh976Gdx2QEW6vVnHIImC39x80Y7NRa+DV7mrWDZ1K
j1fZ5yoneIA7lb5UJxSQ3nb+gsE/tqoZ4moIpQBYOk4JLcII6aY4tgq3aC0UN183
vVSWuBFB6/EOqv4DiHBZJMn7kP4dh3gj1AsG0Ianelm3Dhw7WgO+oauF5/tOSnjz
Y6E2Vum0kxjIk5JOr/WHPjPZeZbD+k4R3TNijDTSOVxaMVOfE8fYwrSDBaupNeCy
ppf01M31EgYaFf4MDz0073E5ovo4Q38wjhtVAgMBAAGjgaEwgZ4wCQYDVR0TBAIw
ADAdBgNVHQ4EFgQUQMViOLpgFTy26Urt7ODhBPnZFeYwUAYDVR0jBEkwR4AUgDbH
A1xQ5x4l0RoLQ9/e0M0k6dehGaQXMBUxEzARBgNVBAMMClNlcnZldXJSU0GCFAy5
9GHA9UGpVcyldQmKpFRiE3P7MBMGA1UdJQQMMAoGCCsGAQUFBwMCMAsGA1UdDwQE
AwIHgDANBgkqhkiG9w0BAQsFAAOCAQEAO8quTtQftqp6GoWRfiKqRKn/lRGJNp27
DbA13QZOHuI/XG/sMEZNQQ2dsS8k2O2XXgM1GJJMgaxtq8Jq2omNSUVqqxpP5tWd
Zjtgllslw9uCNVOLodhLOMjctLtOiWEPxcE5+C/l9YTU/EYRAhueg3Ao1QCv0+RC
ubc+hFAqw6vztg6nTi7qP6cTKHx1EDNqOtpeghCW+t4QphymO+4vjoOH86qgFwKK
S5PeyKzyUX3coSfY+EZqFdNJTLp3GwIt75lciDIoEWWrh1i6OJ/KWLZQzPym0/yH
LhZIILlTB73irw7P5wlUPUOY6l/udg8ja6rDRApvH5UNfrI3cwaUlw==
-----END CERTIFICATE-----
