Certificate:
    Data:
        Version: 3 (0x2)
        Serial Number:
            18:bd:5a:12:a0:40:97:33:85:13:8b:b0:25:e2:15:eb
        Signature Algorithm: sha256WithRSAEncryption
        Issuer: CN=ServeurRSA
        Validity
            Not Before: Dec 17 16:44:43 2024 GMT
            Not After : Mar 22 16:44:43 2027 GMT
        Subject: CN=ServeurSAE
        Subject Public Key Info:
            Public Key Algorithm: rsaEncryption
                Public-Key: (2048 bit)
                Modulus:
                    00:9f:51:6c:25:8b:af:03:fb:14:a4:1b:4d:6b:10:
                    81:e7:d5:de:bb:8a:31:2f:79:0c:78:04:dd:65:83:
                    0b:0d:26:c8:71:04:21:50:03:44:94:a5:c4:5b:73:
                    5a:37:69:7f:eb:97:99:01:6c:a8:7e:79:c8:e2:31:
                    0b:5a:c5:63:2f:6a:23:a7:e4:79:00:57:3f:3e:9a:
                    ad:b0:d8:5e:ce:e9:1b:48:b9:1b:08:dc:9e:a1:4d:
                    cb:83:0e:f6:f1:db:dd:24:8d:ba:40:bf:a9:55:da:
                    76:50:82:72:77:0a:e3:5b:1e:27:65:bb:d8:df:97:
                    89:d8:bf:1f:21:d5:42:9a:48:a8:87:db:82:4b:c7:
                    90:09:02:9c:bb:30:bf:75:0f:61:38:3c:68:97:58:
                    44:2d:29:3b:42:83:bf:3d:95:06:51:6c:4c:ff:1b:
                    3b:f4:8e:1a:42:1d:e1:6d:01:1b:f9:f2:62:f6:f5:
                    0d:c8:a8:d9:5e:1f:91:2c:15:c1:a1:a6:72:75:88:
                    8c:4f:e3:0d:28:23:48:96:d3:f5:18:61:48:ff:6a:
                    1c:cc:44:cb:aa:2f:f9:5c:3f:ec:b0:87:57:75:09:
                    bd:11:0f:5f:5c:b2:22:75:05:d7:33:ae:c6:92:09:
                    9b:09:ca:59:8a:fe:f2:77:c1:36:10:e4:e4:d5:17:
                    9c:0f
                Exponent: 65537 (0x10001)
        X509v3 extensions:
            X509v3 Basic Constraints: 
                CA:FALSE
            X509v3 Subject Key Identifier: 
                FE:07:C9:43:F2:D4:80:CD:77:55:02:0E:BC:D7:DA:74:2F:71:A5:CB
            X509v3 Authority Key Identifier: 
                keyid:80:36:C7:03:5C:50:E7:1E:25:D1:1A:0B:43:DF:DE:D0:CD:24:E9:D7
                DirName:/CN=ServeurRSA
                serial:0C:B9:F4:61:C0:F5:41:A9:55:CC:A5:75:09:8A:A4:54:62:13:73:FB
            X509v3 Extended Key Usage: 
                TLS Web Server Authentication
            X509v3 Key Usage: 
                Digital Signature, Key Encipherment
            X509v3 Subject Alternative Name: 
                DNS:ServeurSAE
    Signature Algorithm: sha256WithRSAEncryption
    Signature Value:
        42:a8:49:38:85:b7:5e:39:d3:70:12:69:d5:cc:3a:32:95:20:
        c2:69:14:76:ad:dd:0d:bd:f6:59:6c:9f:0e:6a:f1:2f:84:69:
        b8:01:e7:8f:8c:8d:f7:5b:a4:92:68:2d:85:9a:be:91:9e:c1:
        3e:ed:75:11:72:5a:74:9e:e2:4a:e9:5c:9a:81:0e:39:df:7f:
        f4:c3:41:a7:81:30:52:af:b9:c7:c8:b6:01:58:2b:67:48:1e:
        a1:3a:8c:f9:a0:24:d7:8c:c2:bf:f1:c9:45:95:73:1e:b2:3f:
        f0:0b:ce:65:b5:15:d9:59:68:68:2d:60:6f:a3:85:e0:25:7c:
        22:61:64:08:03:1a:7f:89:1b:f7:a6:9d:42:5c:35:87:f3:b2:
        70:5c:1f:19:fe:00:c8:12:78:cd:45:7b:83:6c:8e:97:b4:3c:
        08:d4:4f:5d:4a:6a:73:3d:ba:e7:8d:83:ec:08:e6:65:98:1e:
        74:73:cd:06:d2:71:79:2a:f8:2d:c8:87:4f:e7:de:0e:b2:1d:
        2b:02:06:62:b8:f2:90:6e:19:c2:b7:42:58:16:57:38:c4:25:
        fa:64:95:f9:9d:8e:35:28:3f:8a:80:be:d4:30:93:7d:ef:45:
        0c:70:8d:16:eb:b6:3f:27:8a:06:72:f8:3f:9c:9a:b2:a6:c1:
        d3:40:13:f5
-----BEGIN CERTIFICATE-----
MIIDbTCCAlWgAwIBAgIQGL1aEqBAlzOFE4uwJeIV6zANBgkqhkiG9w0BAQsFADAV
MRMwEQYDVQQDDApTZXJ2ZXVyUlNBMB4XDTI0MTIxNzE2NDQ0M1oXDTI3MDMyMjE2
NDQ0M1owFTETMBEGA1UEAwwKU2VydmV1clNBRTCCASIwDQYJKoZIhvcNAQEBBQAD
ggEPADCCAQoCggEBAJ9RbCWLrwP7FKQbTWsQgefV3ruKMS95DHgE3WWDCw0myHEE
IVADRJSlxFtzWjdpf+uXmQFsqH55yOIxC1rFYy9qI6fkeQBXPz6arbDYXs7pG0i5
GwjcnqFNy4MO9vHb3SSNukC/qVXadlCCcncK41seJ2W72N+Xidi/HyHVQppIqIfb
gkvHkAkCnLswv3UPYTg8aJdYRC0pO0KDvz2VBlFsTP8bO/SOGkId4W0BG/nyYvb1
Dcio2V4fkSwVwaGmcnWIjE/jDSgjSJbT9RhhSP9qHMxEy6ov+Vw/7LCHV3UJvREP
X1yyInUF1zOuxpIJmwnKWYr+8nfBNhDk5NUXnA8CAwEAAaOBuDCBtTAJBgNVHRME
AjAAMB0GA1UdDgQWBBT+B8lD8tSAzXdVAg6819p0L3GlyzBQBgNVHSMESTBHgBSA
NscDXFDnHiXRGgtD397QzSTp16EZpBcwFTETMBEGA1UEAwwKU2VydmV1clJTQYIU
DLn0YcD1QalVzKV1CYqkVGITc/swEwYDVR0lBAwwCgYIKwYBBQUHAwEwCwYDVR0P
BAQDAgWgMBUGA1UdEQQOMAyCClNlcnZldXJTQUUwDQYJKoZIhvcNAQELBQADggEB
AEKoSTiFt14503ASadXMOjKVIMJpFHat3Q299llsnw5q8S+EabgB54+MjfdbpJJo
LYWavpGewT7tdRFyWnSe4krpXJqBDjnff/TDQaeBMFKvucfItgFYK2dIHqE6jPmg
JNeMwr/xyUWVcx6yP/ALzmW1FdlZaGgtYG+jheAlfCJhZAgDGn+JG/emnUJcNYfz
snBcHxn+AMgSeM1Fe4Nsjpe0PAjUT11KanM9uueNg+wI5mWYHnRzzQbScXkq+C3I
h0/n3g6yHSsCBmK48pBuGcK3QlgWVzjEJfpklfmdjjUoP4qAvtQwk33vRQxwjRbr
tj8nigZy+D+cmrKmwdNAE/U=
-----END CERTIFICATE-----
